; Function Attrs: nounwind uwtable
define ptr @l___private_Lean_Elab_Binders_0__Lean_Elab_Term_elabBinderViews_loop___rarg___lambda__2(ptr noundef %0, ptr noundef %1, ptr noundef %2, ptr noundef %3, ptr noundef %4, ptr noundef %5, ptr readnone captures(none) %6, ptr noundef %7, ptr noundef %8, ptr noundef %9, ptr noundef %10, ptr noundef %11, ptr noundef %12, ptr noundef %13) local_unnamed_addr #1 {
  %15 = getelementptr inbounds nuw i8, ptr %0, i64 16
  %16 = load ptr, ptr %15, align 8, !tbaa !4
  %17 = ptrtoint ptr %16 to i64
  %18 = and i64 %17, 1
  %.not = icmp eq i64 %18, 0
  br i1 %.not, label %19, label %lean_inc.exit

19:                                               ; preds = %14
  %.val.i = load i32, ptr %16, align 4, !tbaa !8
  %20 = icmp sgt i32 %.val.i, 0
  br i1 %20, label %21, label %23, !prof !11

21:                                               ; preds = %19
  %22 = add nuw i32 %.val.i, 1
  store i32 %22, ptr %16, align 4, !tbaa !8
  br label %lean_inc.exit

23:                                               ; preds = %19
  %.not.i = icmp eq i32 %.val.i, 0
  br i1 %.not.i, label %lean_inc.exit, label %24

24:                                               ; preds = %23
  tail call void @lean_inc_ref_cold(ptr noundef nonnull %16) #6
  br label %lean_inc.exit

lean_inc.exit:                                    ; preds = %24, %23, %21, %14
  %25 = tail call ptr @l_Lean_Syntax_getId(ptr noundef %16) #6
  %26 = tail call zeroext i8 @l_Lean_Name_isImplementationDetail(ptr noundef %25) #6
  %27 = getelementptr inbounds nuw i8, ptr %0, i64 32
  %28 = load i8, ptr %27, align 1, !tbaa !17
  tail call void @lean_inc_heartbeat() #6
  %29 = tail call noalias ptr @mi_malloc_small(i64 noundef 72) #6
  %30 = icmp eq ptr %29, null
  br i1 %30, label %31, label %lean_alloc_closure.exit

31:                                               ; preds = %lean_inc.exit
  tail call void @lean_internal_panic_out_of_memory() #7
  unreachable

lean_alloc_closure.exit:                          ; preds = %lean_inc.exit
  %32 = icmp ne i8 %26, 0
  %..i = zext i1 %32 to i8
  %33 = getelementptr inbounds nuw i8, ptr %29, i64 4
  store i32 1, ptr %29, align 4, !tbaa !8
  store i32 -184549304, ptr %33, align 4
  %34 = getelementptr inbounds nuw i8, ptr %29, i64 8
  store ptr @l___private_Lean_Elab_Binders_0__Lean_Elab_Term_elabBinderViews_loop___rarg___lambda__1___boxed, ptr %34, align 8, !tbaa !4
  %35 = getelementptr inbounds nuw i8, ptr %29, i64 16
  store i16 14, ptr %35, align 8, !tbaa !15
  %36 = getelementptr inbounds nuw i8, ptr %29, i64 18
  store i16 6, ptr %36, align 2, !tbaa !15
  %37 = getelementptr inbounds nuw i8, ptr %29, i64 24
  store ptr %0, ptr %37, align 8, !tbaa !4
  %38 = getelementptr inbounds nuw i8, ptr %29, i64 32
  store ptr %1, ptr %38, align 8, !tbaa !4
  %39 = getelementptr inbounds nuw i8, ptr %29, i64 40
  store ptr %16, ptr %39, align 8, !tbaa !4
  %40 = getelementptr inbounds nuw i8, ptr %29, i64 48
  store ptr %2, ptr %40, align 8, !tbaa !4
  %41 = getelementptr inbounds nuw i8, ptr %29, i64 56
  store ptr %3, ptr %41, align 8, !tbaa !4
  %42 = getelementptr inbounds nuw i8, ptr %29, i64 64
  store ptr %4, ptr %42, align 8, !tbaa !4
  %43 = tail call ptr @l_Lean_Meta_withLocalDecl___at___private_Lean_Elab_Term_0__Lean_Elab_Term_elabImplicitLambda_loop___spec__1___rarg(ptr noundef %25, i8 noundef zeroext %28, ptr noundef %5, ptr noundef nonnull %29, i8 noundef zeroext %..i, ptr noundef %7, ptr noundef %8, ptr noundef %9, ptr noundef %10, ptr noundef %11, ptr noundef %12, ptr noundef %13) #6
  ret ptr %43
}